target datalayout = "e-m:e-p270:32:32-p271:32:32-p272:64:64-i64:64-i128:128-f80:128-n8:16:32:64-S128"
target triple = "x86_64-unknown-linux-gnu"

%"class.OpenColorIO_v2_4dev::RangeOpData" = type <{ %"class.OpenColorIO_v2_4dev::OpData", double, double, double, double, double, double, i32, i32, i32, [4 x i8] }>
%"class.OpenColorIO_v2_4dev::OpData" = type { ptr, %"class.std::mutex", %"class.OpenColorIO_v2_4dev::FormatMetadataImpl" }
%"class.std::mutex" = type { %"class.std::__mutex_base" }
%"class.std::__mutex_base" = type { %union.pthread_mutex_t }
%union.pthread_mutex_t = type { %struct.__pthread_mutex_s }
%struct.__pthread_mutex_s = type { i32, i32, i32, i32, i32, i16, i16, %struct.__pthread_internal_list }
%struct.__pthread_internal_list = type { ptr, ptr }
%"class.OpenColorIO_v2_4dev::FormatMetadataImpl" = type { %"class.OpenColorIO_v2_4dev::FormatMetadata", %"class.std::__cxx11::basic_string", %"class.std::__cxx11::basic_string", %"class.std::vector", %"class.std::vector.3" }
%"class.OpenColorIO_v2_4dev::FormatMetadata" = type { ptr }
%"class.std::__cxx11::basic_string" = type { %"struct.std::__cxx11::basic_string<char>::_Alloc_hider", i64, %union.anon }
%"struct.std::__cxx11::basic_string<char>::_Alloc_hider" = type { ptr }
%union.anon = type { i64, [8 x i8] }
%"class.std::vector" = type { %"struct.std::_Vector_base" }
%"struct.std::_Vector_base" = type { %"struct.std::_Vector_base<std::pair<std::__cxx11::basic_string<char>, std::__cxx11::basic_string<char>>, std::allocator<std::pair<std::__cxx11::basic_string<char>, std::__cxx11::basic_string<char>>>>::_Vector_impl" }
%"struct.std::_Vector_base<std::pair<std::__cxx11::basic_string<char>, std::__cxx11::basic_string<char>>, std::allocator<std::pair<std::__cxx11::basic_string<char>, std::__cxx11::basic_string<char>>>>::_Vector_impl" = type { %"struct.std::_Vector_base<std::pair<std::__cxx11::basic_string<char>, std::__cxx11::basic_string<char>>, std::allocator<std::pair<std::__cxx11::basic_string<char>, std::__cxx11::basic_string<char>>>>::_Vector_impl_data" }
%"struct.std::_Vector_base<std::pair<std::__cxx11::basic_string<char>, std::__cxx11::basic_string<char>>, std::allocator<std::pair<std::__cxx11::basic_string<char>, std::__cxx11::basic_string<char>>>>::_Vector_impl_data" = type { ptr, ptr, ptr }
%"class.std::vector.3" = type { %"struct.std::_Vector_base.4" }
%"struct.std::_Vector_base.4" = type { %"struct.std::_Vector_base<OpenColorIO_v2_4dev::FormatMetadataImpl, std::allocator<OpenColorIO_v2_4dev::FormatMetadataImpl>>::_Vector_impl" }
%"struct.std::_Vector_base<OpenColorIO_v2_4dev::FormatMetadataImpl, std::allocator<OpenColorIO_v2_4dev::FormatMetadataImpl>>::_Vector_impl" = type { %"struct.std::_Vector_base<OpenColorIO_v2_4dev::FormatMetadataImpl, std::allocator<OpenColorIO_v2_4dev::FormatMetadataImpl>>::_Vector_impl_data" }
%"struct.std::_Vector_base<OpenColorIO_v2_4dev::FormatMetadataImpl, std::allocator<OpenColorIO_v2_4dev::FormatMetadataImpl>>::_Vector_impl_data" = type { ptr, ptr, ptr }

@_ZTIN19OpenColorIO_v2_4dev9ExceptionE = external constant ptr
@.str.8 = private unnamed_addr constant [44 x i8] c"Range maxInValue is too close to minInValue\00", align 1

; Function Attrs: mustprogress nounwind uwtable
define linkonce_odr noundef zeroext i1 @_ZSt5isnanf(float noundef %__x) #5 comdat {
entry:
  %__x.addr = alloca float, align 4
  store float %__x, ptr %__x.addr, align 4
  %0 = load float, ptr %__x.addr, align 4
  %1 = call i1 @llvm.is.fpclass.f32(float %0, i32 3)
  ret i1 %1
}

; Function Attrs: mustprogress uwtable
define linkonce_odr hidden noundef zeroext i1 @_ZN19OpenColorIO_v2_4dev5IsNanIfEEbT_(float noundef %val) #4 comdat {
entry:
  %val.addr = alloca float, align 4
  store float %val, ptr %val.addr, align 4
  %0 = load float, ptr %val.addr, align 4
  %call = call noundef zeroext i1 @_ZSt5isnanf(float noundef %0)
  ret i1 %call
}

; Function Attrs: mustprogress uwtable
define hidden noundef zeroext i1 @_ZNK19OpenColorIO_v2_4dev11RangeOpData10maxIsEmptyEv(ptr noundef nonnull align 8 dereferenceable(228) %this) #4 align 2 {
entry:
  %this.addr = alloca ptr, align 8
  store ptr %this, ptr %this.addr, align 8
  %this1 = load ptr, ptr %this.addr, align 8
  %m_maxInValue = getelementptr inbounds %"class.OpenColorIO_v2_4dev::RangeOpData", ptr %this1, i32 0, i32 2
  %0 = load double, ptr %m_maxInValue, align 8
  %conv = fptrunc double %0 to float
  %call = call noundef zeroext i1 @_ZN19OpenColorIO_v2_4dev5IsNanIfEEbT_(float noundef %conv)
  %conv2 = zext i1 %call to i32
  %cmp = icmp ne i32 %conv2, 0
  ret i1 %cmp
}

; Function Attrs: mustprogress uwtable
define hidden noundef zeroext i1 @_ZNK19OpenColorIO_v2_4dev11RangeOpData10minIsEmptyEv(ptr noundef nonnull align 8 dereferenceable(228) %this) #4 align 2 {
entry:
  %this.addr = alloca ptr, align 8
  store ptr %this, ptr %this.addr, align 8
  %this1 = load ptr, ptr %this.addr, align 8
  %m_minInValue = getelementptr inbounds %"class.OpenColorIO_v2_4dev::RangeOpData", ptr %this1, i32 0, i32 1
  %0 = load double, ptr %m_minInValue, align 8
  %conv = fptrunc double %0 to float
  %call = call noundef zeroext i1 @_ZN19OpenColorIO_v2_4dev5IsNanIfEEbT_(float noundef %conv)
  %conv2 = zext i1 %call to i32
  %cmp = icmp ne i32 %conv2, 0
  ret i1 %cmp
}

; Function Attrs: mustprogress uwtable
define hidden void @_ZNK19OpenColorIO_v2_4dev11RangeOpData15fillScaleOffsetEv(ptr noundef nonnull align 8 dereferenceable(228) %this) #4 align 2 personality ptr @__gxx_personality_v0 {
entry:
  %this.addr = alloca ptr, align 8
  %denom = alloca double, align 8
  %exn.slot = alloca ptr, align 8
  %ehselector.slot = alloca i32, align 4
  store ptr %this, ptr %this.addr, align 8
  %this1 = load ptr, ptr %this.addr, align 8
  %m_scale = getelementptr inbounds %"class.OpenColorIO_v2_4dev::RangeOpData", ptr %this1, i32 0, i32 5
  store double 1.000000e+00, ptr %m_scale, align 8
  %call = call noundef zeroext i1 @_ZNK19OpenColorIO_v2_4dev11RangeOpData10minIsEmptyEv(ptr noundef nonnull align 8 dereferenceable(228) %this1)
  br i1 %call, label %if.then, label %if.else

if.then:                                          ; preds = %entry
  %m_offset = getelementptr inbounds %"class.OpenColorIO_v2_4dev::RangeOpData", ptr %this1, i32 0, i32 6
  store double 0.000000e+00, ptr %m_offset, align 8
  br label %if.end14

if.else:                                          ; preds = %entry
  %call2 = call noundef zeroext i1 @_ZNK19OpenColorIO_v2_4dev11RangeOpData10maxIsEmptyEv(ptr noundef nonnull align 8 dereferenceable(228) %this1)
  br i1 %call2, label %if.then3, label %if.else5

if.then3:                                         ; preds = %if.else
  %m_offset4 = getelementptr inbounds %"class.OpenColorIO_v2_4dev::RangeOpData", ptr %this1, i32 0, i32 6
  store double 0.000000e+00, ptr %m_offset4, align 8
  br label %if.end13

if.else5:                                         ; preds = %if.else
  %m_maxInValue = getelementptr inbounds %"class.OpenColorIO_v2_4dev::RangeOpData", ptr %this1, i32 0, i32 2
  %0 = load double, ptr %m_maxInValue, align 8
  %m_minInValue = getelementptr inbounds %"class.OpenColorIO_v2_4dev::RangeOpData", ptr %this1, i32 0, i32 1
  %1 = load double, ptr %m_minInValue, align 8
  %sub = fsub double %0, %1
  store double %sub, ptr %denom, align 8
  %2 = load double, ptr %denom, align 8
  %3 = call double @llvm.fabs.f64(double %2)
  %cmp = fcmp olt double %3, 0x3EB0C6F7A0B5ED8D
  br i1 %cmp, label %if.then6, label %if.end

if.then6:                                         ; preds = %if.else5
  %exception = call ptr @__cxa_allocate_exception(i64 16) #3
  invoke void @_ZN19OpenColorIO_v2_4dev9ExceptionC1EPKc(ptr noundef nonnull align 8 dereferenceable(16) %exception, ptr noundef @.str.8)
          to label %invoke.cont unwind label %lpad

invoke.cont:                                      ; preds = %if.then6
  call void @__cxa_throw(ptr %exception, ptr @_ZTIN19OpenColorIO_v2_4dev9ExceptionE, ptr @_ZN19OpenColorIO_v2_4dev9ExceptionD1Ev) #13
  unreachable

lpad:                                             ; preds = %if.then6
  %4 = landingpad { ptr, i32 }
          cleanup
  %5 = extractvalue { ptr, i32 } %4, 0
  store ptr %5, ptr %exn.slot, align 8
  %6 = extractvalue { ptr, i32 } %4, 1
  store i32 %6, ptr %ehselector.slot, align 4
  call void @__cxa_free_exception(ptr %exception) #3
  br label %eh.resume

if.end:                                           ; preds = %if.else5
  %m_maxOutValue = getelementptr inbounds %"class.OpenColorIO_v2_4dev::RangeOpData", ptr %this1, i32 0, i32 4
  %7 = load double, ptr %m_maxOutValue, align 8
  %m_minOutValue = getelementptr inbounds %"class.OpenColorIO_v2_4dev::RangeOpData", ptr %this1, i32 0, i32 3
  %8 = load double, ptr %m_minOutValue, align 8
  %sub7 = fsub double %7, %8
  %9 = load double, ptr %denom, align 8
  %div = fdiv double %sub7, %9
  %m_scale8 = getelementptr inbounds %"class.OpenColorIO_v2_4dev::RangeOpData", ptr %this1, i32 0, i32 5
  store double %div, ptr %m_scale8, align 8
  %m_minOutValue9 = getelementptr inbounds %"class.OpenColorIO_v2_4dev::RangeOpData", ptr %this1, i32 0, i32 3
  %10 = load double, ptr %m_minOutValue9, align 8
  %m_scale10 = getelementptr inbounds %"class.OpenColorIO_v2_4dev::RangeOpData", ptr %this1, i32 0, i32 5
  %11 = load double, ptr %m_scale10, align 8
  %m_minInValue11 = getelementptr inbounds %"class.OpenColorIO_v2_4dev::RangeOpData", ptr %this1, i32 0, i32 1
  %12 = load double, ptr %m_minInValue11, align 8
  %neg = fneg double %11
  %13 = call double @llvm.fmuladd.f64(double %neg, double %12, double %10)
  %m_offset12 = getelementptr inbounds %"class.OpenColorIO_v2_4dev::RangeOpData", ptr %this1, i32 0, i32 6
  store double %13, ptr %m_offset12, align 8
  br label %if.end13

if.end13:                                         ; preds = %if.end, %if.then3
  br label %if.end14

if.end14:                                         ; preds = %if.end13, %if.then
  ret void

eh.resume:                                        ; preds = %lpad
  %exn = load ptr, ptr %exn.slot, align 8
  %sel = load i32, ptr %ehselector.slot, align 4
  %lpad.val = insertvalue { ptr, i32 } poison, ptr %exn, 0
  %lpad.val15 = insertvalue { ptr, i32 } %lpad.val, i32 %sel, 1
  resume { ptr, i32 } %lpad.val15
}