; Function Attrs: mustprogress uwtable
define hidden void @_ZNK19OpenColorIO_v2_4dev11RangeOpData15fillScaleOffsetEv(ptr nocapture noundef nonnull align 8 dereferenceable(228) %this) local_unnamed_addr #3 align 2 personality ptr @__gxx_personality_v0 {
entry:
  %m_scale = getelementptr inbounds i8, ptr %this, i64 200
  store double 1.000000e+00, ptr %m_scale, align 8
  %m_minInValue.i = getelementptr inbounds i8, ptr %this, i64 168
  %0 = load double, ptr %m_minInValue.i, align 8
  %conv.i = fptrunc double %0 to float
  %1 = fcmp uno float %conv.i, 0.000000e+00
  br i1 %1, label %if.end14, label %if.else

if.else:                                          ; preds = %entry
  %m_maxInValue.i = getelementptr inbounds i8, ptr %this, i64 176
  %2 = load double, ptr %m_maxInValue.i, align 8
  %conv.i2 = fptrunc double %2 to float
  %3 = fcmp uno float %conv.i2, 0.000000e+00
  br i1 %3, label %if.end14, label %if.else5

if.else5:                                         ; preds = %if.else
  %sub = fsub double %2, %0
  %4 = tail call double @llvm.fabs.f64(double %sub)
  %cmp = fcmp olt double %4, 0x3EB0C6F7A0B5ED8D
  br i1 %cmp, label %if.then6, label %if.end

if.then6:                                         ; preds = %if.else5
  %exception = tail call ptr @__cxa_allocate_exception(i64 16) #17
  invoke void @_ZN19OpenColorIO_v2_4dev9ExceptionC1EPKc(ptr noundef nonnull align 8 dereferenceable(16) %exception, ptr noundef nonnull @.str.8)
          to label %invoke.cont unwind label %lpad

invoke.cont:                                      ; preds = %if.then6
  tail call void @__cxa_throw(ptr nonnull %exception, ptr nonnull @_ZTIN19OpenColorIO_v2_4dev9ExceptionE, ptr nonnull @_ZN19OpenColorIO_v2_4dev9ExceptionD1Ev) #18
  unreachable

lpad:                                             ; preds = %if.then6
  %5 = landingpad { ptr, i32 }
          cleanup
  tail call void @__cxa_free_exception(ptr %exception) #17
  resume { ptr, i32 } %5

if.end:                                           ; preds = %if.else5
  %m_maxOutValue = getelementptr inbounds i8, ptr %this, i64 192
  %6 = load double, ptr %m_maxOutValue, align 8
  %m_minOutValue = getelementptr inbounds i8, ptr %this, i64 184
  %7 = load double, ptr %m_minOutValue, align 8
  %sub7 = fsub double %6, %7
  %div = fdiv double %sub7, %sub
  store double %div, ptr %m_scale, align 8
  %neg = fneg double %div
  %8 = tail call double @llvm.fmuladd.f64(double %neg, double %0, double %7)
  br label %if.end14

if.end14:                                         ; preds = %if.else, %entry, %if.end
  %.sink = phi double [ %8, %if.end ], [ 0.000000e+00, %entry ], [ 0.000000e+00, %if.else ]
  %m_offset4 = getelementptr inbounds i8, ptr %this, i64 208
  store double %.sink, ptr %m_offset4, align 8
  ret void
}